; Function Attrs: mustprogress nofree norecurse nosync nounwind willreturn memory(read, inaccessiblemem: none) uwtable
define dso_local noundef ptr @_ZNK4llvm14DWARFUnitIndex5Entry15getContributionENS_16DWARFSectionKindE(ptr noundef nonnull readonly align 8 captures(none) dereferenceable(24) %0, i32 noundef %1) local_unnamed_addr #5 align 2 {
  %3 = load ptr, ptr %0, align 8
  %4 = getelementptr inbounds nuw i8, ptr %3, i64 4
  %5 = load i32, ptr %4, align 4
  %.not7 = icmp eq i32 %5, 0
  br i1 %.not7, label %.loopexit, label %.lr.ph

.lr.ph:                                           ; preds = %2
  %6 = getelementptr inbounds nuw i8, ptr %3, i64 24
  %7 = load ptr, ptr %6, align 8
  br label %10

8:                                                ; preds = %10
  %9 = add nuw i32 %.08, 1
  %.not = icmp eq i32 %9, %5
  br i1 %.not, label %.loopexit, label %10, !llvm.loop !53

10:                                               ; preds = %.lr.ph, %8
  %.08 = phi i32 [ 0, %.lr.ph ], [ %9, %8 ]
  %11 = zext i32 %.08 to i64
  %12 = getelementptr inbounds nuw i32, ptr %7, i64 %11
  %13 = load i32, ptr %12, align 4
  %14 = icmp eq i32 %13, %1
  br i1 %14, label %15, label %8

15:                                               ; preds = %10
  %16 = getelementptr inbounds nuw i8, ptr %0, i64 16
  %17 = load ptr, ptr %16, align 8
  %18 = getelementptr inbounds nuw %"class.llvm::DWARFUnitIndex::Entry::SectionContribution", ptr %17, i64 %11
  br label %.loopexit

.loopexit:                                        ; preds = %8, %2, %15
  %.06 = phi ptr [ %18, %15 ], [ null, %2 ], [ null, %8 ]
  ret ptr %.06
}